; ModuleID = '45/952.c'
source_filename = "45/952.c"
target datalayout = "e-m:e-p270:32:32-p271:32:32-p272:64:64-i64:64-f80:128-n8:16:32:64-S128"
target triple = "x86_64-pc-linux-gnu"

@f = common dso_local global [50 x i32] zeroinitializer, align 16
@.str = private unnamed_addr constant [5 x i8] c"%s%s\00", align 1
@.str.1 = private unnamed_addr constant [3 x i8] c"%d\00", align 1

; Function Attrs: noinline nounwind uwtable
define dso_local void @func(i8* %0) #0 {
  %2 = alloca i8*, align 8
  %3 = alloca i32, align 4
  %4 = alloca i32, align 4
  %5 = alloca i32, align 4
  store i8* %0, i8** %2, align 8
  %6 = load i8*, i8** %2, align 8
  %7 = call i64 @strlen(i8* %6) #3
  %8 = trunc i64 %7 to i32
  store i32 %8, i32* %3, align 4
  store i32 -1, i32* getelementptr inbounds ([50 x i32], [50 x i32]* @f, i64 0, i64 0), align 16
  store i32 1, i32* %4, align 4
  br label %9

9:                                                ; preds = %58, %1
  %10 = load i32, i32* %4, align 4
  %11 = load i32, i32* %3, align 4
  %12 = icmp slt i32 %10, %11
  br i1 %12, label %13, label %61

13:                                               ; preds = %9
  %14 = load i32, i32* %4, align 4
  %15 = sub nsw i32 %14, 1
  %16 = sext i32 %15 to i64
  %17 = getelementptr inbounds [50 x i32], [50 x i32]* @f, i64 0, i64 %16
  %18 = load i32, i32* %17, align 4
  store i32 %18, i32* %5, align 4
  br label %19

19:                                               ; preds = %39, %13
  %20 = load i32, i32* %5, align 4
  %21 = icmp sge i32 %20, 0
  br i1 %21, label %22, label %37

22:                                               ; preds = %19
  %23 = load i8*, i8** %2, align 8
  %24 = load i32, i32* %4, align 4
  %25 = sext i32 %24 to i64
  %26 = getelementptr inbounds i8, i8* %23, i64 %25
  %27 = load i8, i8* %26, align 1
  %28 = sext i8 %27 to i32
  %29 = load i8*, i8** %2, align 8
  %30 = load i32, i32* %5, align 4
  %31 = add nsw i32 %30, 1
  %32 = sext i32 %31 to i64
  %33 = getelementptr inbounds i8, i8* %29, i64 %32
  %34 = load i8, i8* %33, align 1
  %35 = sext i8 %34 to i32
  %36 = icmp ne i32 %28, %35
  br label %37

37:                                               ; preds = %22, %19
  %38 = phi i1 [ false, %19 ], [ %36, %22 ]
  br i1 %38, label %39, label %44

39:                                               ; preds = %37
  %40 = load i32, i32* %5, align 4
  %41 = sext i32 %40 to i64
  %42 = getelementptr inbounds [50 x i32], [50 x i32]* @f, i64 0, i64 %41
  %43 = load i32, i32* %42, align 4
  store i32 %43, i32* %5, align 4
  br label %19

44:                                               ; preds = %37
  %45 = load i32, i32* %5, align 4
  %46 = icmp eq i32 %45, -1
  br i1 %46, label %47, label %51

47:                                               ; preds = %44
  %48 = load i32, i32* %4, align 4
  %49 = sext i32 %48 to i64
  %50 = getelementptr inbounds [50 x i32], [50 x i32]* @f, i64 0, i64 %49
  store i32 -1, i32* %50, align 4
  br label %57

51:                                               ; preds = %44
  %52 = load i32, i32* %5, align 4
  %53 = add nsw i32 %52, 1
  %54 = load i32, i32* %4, align 4
  %55 = sext i32 %54 to i64
  %56 = getelementptr inbounds [50 x i32], [50 x i32]* @f, i64 0, i64 %55
  store i32 %53, i32* %56, align 4
  br label %57

57:                                               ; preds = %51, %47
  br label %58

58:                                               ; preds = %57
  %59 = load i32, i32* %4, align 4
  %60 = add nsw i32 %59, 1
  store i32 %60, i32* %4, align 4
  br label %9

61:                                               ; preds = %9
  ret void
}

; Function Attrs: nounwind readonly
declare dso_local i64 @strlen(i8*) #1

; Function Attrs: noinline nounwind uwtable
define dso_local i32 @main() #0 {
  %1 = alloca i32, align 4
  %2 = alloca [51 x i8], align 16
  %3 = alloca [51 x i8], align 16
  %4 = alloca i32, align 4
  %5 = alloca i32, align 4
  %6 = alloca i32, align 4
  %7 = alloca i32, align 4
  store i32 0, i32* %1, align 4
  %8 = getelementptr inbounds [51 x i8], [51 x i8]* %3, i64 0, i64 0
  %9 = getelementptr inbounds [51 x i8], [51 x i8]* %2, i64 0, i64 0
  %10 = call i32 (i8*, ...) @__isoc99_scanf(i8* getelementptr inbounds ([5 x i8], [5 x i8]* @.str, i64 0, i64 0), i8* %8, i8* %9)
  %11 = getelementptr inbounds [51 x i8], [51 x i8]* %3, i64 0, i64 0
  call void @func(i8* %11)
  %12 = getelementptr inbounds [51 x i8], [51 x i8]* %2, i64 0, i64 0
  %13 = call i64 @strlen(i8* %12) #3
  %14 = trunc i64 %13 to i32
  store i32 %14, i32* %4, align 4
  %15 = getelementptr inbounds [51 x i8], [51 x i8]* %3, i64 0, i64 0
  %16 = call i64 @strlen(i8* %15) #3
  %17 = trunc i64 %16 to i32
  store i32 %17, i32* %5, align 4
  store i32 0, i32* %6, align 4
  store i32 0, i32* %7, align 4
  br label %18

18:                                               ; preds = %59, %0
  %19 = load i32, i32* %6, align 4
  %20 = load i32, i32* %4, align 4
  %21 = icmp slt i32 %19, %20
  br i1 %21, label %22, label %26

22:                                               ; preds = %18
  %23 = load i32, i32* %7, align 4
  %24 = load i32, i32* %5, align 4
  %25 = icmp slt i32 %23, %24
  br label %26

26:                                               ; preds = %22, %18
  %27 = phi i1 [ false, %18 ], [ %25, %22 ]
  br i1 %27, label %28, label %60

28:                                               ; preds = %26
  %29 = load i32, i32* %6, align 4
  %30 = sext i32 %29 to i64
  %31 = getelementptr inbounds [51 x i8], [51 x i8]* %2, i64 0, i64 %30
  %32 = load i8, i8* %31, align 1
  %33 = sext i8 %32 to i32
  %34 = load i32, i32* %7, align 4
  %35 = sext i32 %34 to i64
  %36 = getelementptr inbounds [51 x i8], [51 x i8]* %3, i64 0, i64 %35
  %37 = load i8, i8* %36, align 1
  %38 = sext i8 %37 to i32
  %39 = icmp eq i32 %33, %38
  br i1 %39, label %40, label %45

40:                                               ; preds = %28
  %41 = load i32, i32* %6, align 4
  %42 = add nsw i32 %41, 1
  store i32 %42, i32* %6, align 4
  %43 = load i32, i32* %7, align 4
  %44 = add nsw i32 %43, 1
  store i32 %44, i32* %7, align 4
  br label %59

45:                                               ; preds = %28
  %46 = load i32, i32* %7, align 4
  %47 = icmp eq i32 %46, 0
  br i1 %47, label %48, label %51

48:                                               ; preds = %45
  %49 = load i32, i32* %6, align 4
  %50 = add nsw i32 %49, 1
  store i32 %50, i32* %6, align 4
  br label %58

51:                                               ; preds = %45
  %52 = load i32, i32* %7, align 4
  %53 = sub nsw i32 %52, 1
  %54 = sext i32 %53 to i64
  %55 = getelementptr inbounds [50 x i32], [50 x i32]* @f, i64 0, i64 %54
  %56 = load i32, i32* %55, align 4
  %57 = add nsw i32 %56, 1
  store i32 %57, i32* %7, align 4
  br label %58

58:                                               ; preds = %51, %48
  br label %59

59:                                               ; preds = %58, %40
  br label %18

60:                                               ; preds = %26
  %61 = load i32, i32* %7, align 4
  %62 = load i32, i32* %5, align 4
  %63 = icmp eq i32 %61, %62
  br i1 %63, label %64, label %69

64:                                               ; preds = %60
  %65 = load i32, i32* %6, align 4
  %66 = load i32, i32* %5, align 4
  %67 = sub nsw i32 %65, %66
  %68 = call i32 (i8*, ...) @printf(i8* getelementptr inbounds ([3 x i8], [3 x i8]* @.str.1, i64 0, i64 0), i32 %67)
  br label %69

69:                                               ; preds = %64, %60
  %70 = load i32, i32* %1, align 4
  ret i32 %70
}

declare dso_local i32 @__isoc99_scanf(i8*, ...) #2

declare dso_local i32 @printf(i8*, ...) #2


!llvm.module.flags = !{!0}
!llvm.ident = !{!1}

!0 = !{i32 1, !"wchar_size", i32 4}
!1 = !{!"clang version 10.0.0-4ubuntu1 "}
